; Function Attrs: mustprogress uwtable
define hidden void @_ZN7datalog21sieve_relation_plugin21extract_inner_columnsERKNS_18relation_signatureERNS_15relation_pluginER7svectorIbjE(ptr nonnull readnone align 8 captures(none) %0, ptr noundef nonnull readonly align 8 captures(none) dereferenceable(8) %1, ptr noundef nonnull align 8 dereferenceable(36) %2, ptr noundef nonnull readonly align 8 captures(none) dereferenceable(8) %3) local_unnamed_addr #3 align 2 personality ptr @__gxx_personality_v0 {
  %5 = alloca %"class.datalog::relation_signature", align 8
  %6 = load ptr, ptr %1, align 8, !tbaa !10
  %7 = icmp eq ptr %6, null
  br i1 %7, label %_ZNK6vectorIP4sortLb0EjE4sizeEv.exit.thread, label %_ZNK6vectorIP4sortLb0EjE4sizeEv.exit

_ZNK6vectorIP4sortLb0EjE4sizeEv.exit.thread:      ; preds = %4
  call void @llvm.lifetime.start.p0(i64 8, ptr nonnull %5) #23
  br label %_ZN6vectorIP4sortLb0EjED2Ev.exit

_ZNK6vectorIP4sortLb0EjE4sizeEv.exit:             ; preds = %4
  %8 = getelementptr inbounds i8, ptr %6, i64 -4
  %9 = load i32, ptr %8, align 4, !tbaa !14
  call void @llvm.lifetime.start.p0(i64 8, ptr nonnull %5) #23
  store ptr null, ptr %5, align 8, !tbaa !10
  %.not = icmp eq i32 %9, 0
  br i1 %.not, label %_ZN6vectorIP4sortLb0EjED2Ev.exit, label %.lr.ph.preheader

.lr.ph.preheader:                                 ; preds = %_ZNK6vectorIP4sortLb0EjE4sizeEv.exit
  %wide.trip.count = zext i32 %9 to i64
  br label %.lr.ph

._crit_edge:                                      ; preds = %40
  %.not.i.i = icmp eq ptr %.pre, null
  br i1 %.not.i.i, label %_ZN6vectorIP4sortLb0EjED2Ev.exit, label %10

10:                                               ; preds = %._crit_edge
  %11 = getelementptr inbounds i8, ptr %.pre, i64 -8
  invoke void @_ZN6memory10deallocateEPv(ptr noundef nonnull %11)
          to label %_ZN6vectorIP4sortLb0EjED2Ev.exit unwind label %12

12:                                               ; preds = %10
  %13 = landingpad { ptr, i32 }
          catch ptr null
  %14 = extractvalue { ptr, i32 } %13, 0
  call void @__clang_call_terminate(ptr %14) #24
  unreachable

_ZN6vectorIP4sortLb0EjED2Ev.exit:                 ; preds = %_ZNK6vectorIP4sortLb0EjE4sizeEv.exit.thread, %_ZNK6vectorIP4sortLb0EjE4sizeEv.exit, %._crit_edge, %10
  call void @llvm.lifetime.end.p0(i64 8, ptr nonnull %5) #23
  ret void

.lr.ph:                                           ; preds = %40, %.lr.ph.preheader
  %15 = phi ptr [ null, %.lr.ph.preheader ], [ %.pre, %40 ]
  %indvars.iv = phi i64 [ 0, %.lr.ph.preheader ], [ %indvars.iv.next, %40 ]
  %.not.i = icmp eq ptr %15, null
  br i1 %.not.i, label %_ZN6vectorIP4sortLb0EjE5resetEv.exit.thread, label %18

_ZN6vectorIP4sortLb0EjE5resetEv.exit.thread:      ; preds = %.lr.ph
  %16 = load ptr, ptr %1, align 8, !tbaa !10
  %17 = getelementptr inbounds nuw ptr, ptr %16, i64 %indvars.iv
  br label %25

18:                                               ; preds = %.lr.ph
  %19 = getelementptr inbounds i8, ptr %15, i64 -4
  store i32 0, ptr %19, align 4, !tbaa !14
  %20 = load ptr, ptr %1, align 8, !tbaa !10
  %21 = getelementptr inbounds nuw ptr, ptr %20, i64 %indvars.iv
  %22 = getelementptr inbounds i8, ptr %15, i64 -8
  %23 = load i32, ptr %22, align 4, !tbaa !14
  %24 = icmp eq i32 %23, 0
  br i1 %24, label %25, label %27

25:                                               ; preds = %_ZN6vectorIP4sortLb0EjE5resetEv.exit.thread, %18
  %26 = phi ptr [ %17, %_ZN6vectorIP4sortLb0EjE5resetEv.exit.thread ], [ %21, %18 ]
  invoke void @_ZN6vectorIP4sortLb0EjE13expand_vectorEv(ptr noundef nonnull align 8 dereferenceable(8) %5)
          to label %.noexc unwind label %44

.noexc:                                           ; preds = %25
  %.pre.i = load ptr, ptr %5, align 8, !tbaa !10
  %.phi.trans.insert.i = getelementptr inbounds i8, ptr %.pre.i, i64 -4
  %.pre2.i = load i32, ptr %.phi.trans.insert.i, align 4, !tbaa !14
  br label %27

27:                                               ; preds = %.noexc, %18
  %28 = phi ptr [ %26, %.noexc ], [ %21, %18 ]
  %29 = phi i32 [ %.pre2.i, %.noexc ], [ 0, %18 ]
  %30 = phi ptr [ %.pre.i, %.noexc ], [ %15, %18 ]
  %31 = getelementptr inbounds i8, ptr %30, i64 -4
  %32 = zext i32 %29 to i64
  %33 = getelementptr inbounds nuw ptr, ptr %30, i64 %32
  %34 = load ptr, ptr %28, align 8, !tbaa !63
  store ptr %34, ptr %33, align 8, !tbaa !63
  %35 = add i32 %29, 1
  store i32 %35, ptr %31, align 4, !tbaa !14
  %36 = load ptr, ptr %2, align 8, !tbaa !3
  %37 = getelementptr inbounds nuw i8, ptr %36, i64 24
  %38 = load ptr, ptr %37, align 8
  %39 = invoke noundef zeroext i1 %38(ptr noundef nonnull align 8 dereferenceable(32) %2, ptr noundef nonnull align 8 dereferenceable(8) %5)
          to label %40 unwind label %44

40:                                               ; preds = %27
  %41 = load ptr, ptr %3, align 8, !tbaa !29
  %42 = getelementptr inbounds nuw i8, ptr %41, i64 %indvars.iv
  %43 = zext i1 %39 to i8
  store i8 %43, ptr %42, align 1, !tbaa !32
  %indvars.iv.next = add nuw nsw i64 %indvars.iv, 1
  %exitcond.not = icmp eq i64 %indvars.iv.next, %wide.trip.count
  %.pre = load ptr, ptr %5, align 8, !tbaa !10
  br i1 %exitcond.not, label %._crit_edge, label %.lr.ph, !llvm.loop !129

44:                                               ; preds = %25, %27
  %45 = landingpad { ptr, i32 }
          cleanup
  call void @_ZN6vectorIP4sortLb0EjED2Ev(ptr noundef nonnull align 8 dereferenceable(8) %5) #23
  call void @llvm.lifetime.end.p0(i64 8, ptr nonnull %5) #23
  resume { ptr, i32 } %45
}